target datalayout = "e-m:e-p270:32:32-p271:32:32-p272:64:64-i64:64-i128:128-f80:128-n8:16:32:64-S128"
target triple = "x86_64-pc-linux-gnu"

%struct.uv_loop_s = type { ptr, i32, [2 x ptr], %union.anon.1, ptr, i32, i64, i32, [2 x ptr], [2 x ptr], ptr, i32, i32, [2 x ptr], %union.pthread_mutex_t, %struct.uv_async_s, %union.pthread_rwlock_t, ptr, [2 x ptr], [2 x ptr], [2 x ptr], [2 x ptr], [2 x ptr], ptr, %struct.uv__io_s, i32, %struct.anon, i64, i64, [2 x i32], %struct.uv__io_s, %struct.uv_signal_s, i32, %struct.uv__io_s, ptr, i32 }
%union.anon.1 = type { ptr }
%union.pthread_mutex_t = type { %struct.__pthread_mutex_s }
%struct.__pthread_mutex_s = type { i32, i32, i32, i32, i32, i16, i16, %struct.__pthread_internal_list }
%struct.__pthread_internal_list = type { ptr, ptr }
%struct.uv_async_s = type { ptr, ptr, i32, ptr, [2 x ptr], %union.anon.2, ptr, i32, ptr, [2 x ptr], i32 }
%union.anon.2 = type { [4 x ptr] }
%union.pthread_rwlock_t = type { %struct.__pthread_rwlock_arch_t }
%struct.__pthread_rwlock_arch_t = type { i32, i32, i32, i32, i32, i32, i32, i32, i8, [7 x i8], i64, i32 }
%struct.anon = type { ptr, i32 }
%struct.uv_signal_s = type { ptr, ptr, i32, ptr, [2 x ptr], %union.anon.3, ptr, i32, ptr, i32, %struct.anon.4, i32, i32 }
%union.anon.3 = type { [4 x ptr] }
%struct.anon.4 = type { ptr, ptr, ptr, i32 }
%struct.uv__io_s = type { ptr, [2 x ptr], [2 x ptr], i32, i32, i32 }
%struct.uv_stream_s = type { ptr, ptr, i32, ptr, [2 x ptr], %union.anon, ptr, i32, i64, ptr, ptr, ptr, ptr, %struct.uv__io_s, [2 x ptr], [2 x ptr], ptr, i32, i32, ptr }
%union.anon = type { [4 x ptr] }

; Function Attrs: nounwind uwtable
define internal void @uv__stream_osx_interrupt_select(ptr noundef %0) #0 {
  %2 = alloca ptr, align 8
  store ptr %0, ptr %2, align 8
  ret void
}

; Function Attrs: nounwind uwtable
define dso_local i32 @uv__read_start(ptr noundef %0, ptr noundef %1, ptr noundef %2) #0 {
  %4 = alloca ptr, align 8
  %5 = alloca ptr, align 8
  %6 = alloca ptr, align 8
  store ptr %0, ptr %4, align 8
  store ptr %1, ptr %5, align 8
  store ptr %2, ptr %6, align 8
  %7 = load ptr, ptr %4, align 8
  %8 = getelementptr inbounds %struct.uv_stream_s, ptr %7, i32 0, i32 7
  %9 = load i32, ptr %8, align 8
  %10 = or i32 %9, 4096
  store i32 %10, ptr %8, align 8
  %11 = load ptr, ptr %4, align 8
  %12 = getelementptr inbounds %struct.uv_stream_s, ptr %11, i32 0, i32 7
  %13 = load i32, ptr %12, align 8
  %14 = and i32 %13, -2049
  store i32 %14, ptr %12, align 8
  %15 = load ptr, ptr %6, align 8
  %16 = load ptr, ptr %4, align 8
  %17 = getelementptr inbounds %struct.uv_stream_s, ptr %16, i32 0, i32 10
  store ptr %15, ptr %17, align 8
  %18 = load ptr, ptr %5, align 8
  %19 = load ptr, ptr %4, align 8
  %20 = getelementptr inbounds %struct.uv_stream_s, ptr %19, i32 0, i32 9
  store ptr %18, ptr %20, align 8
  %21 = load ptr, ptr %4, align 8
  %22 = getelementptr inbounds %struct.uv_stream_s, ptr %21, i32 0, i32 1
  %23 = load ptr, ptr %22, align 8
  %24 = load ptr, ptr %4, align 8
  %25 = getelementptr inbounds %struct.uv_stream_s, ptr %24, i32 0, i32 13
  call void @uv__io_start(ptr noundef %23, ptr noundef %25, i32 noundef 1)
  br label %26

26:                                               ; preds = %3
  %27 = load ptr, ptr %4, align 8
  %28 = getelementptr inbounds %struct.uv_stream_s, ptr %27, i32 0, i32 7
  %29 = load i32, ptr %28, align 8
  %30 = and i32 %29, 4
  %31 = icmp ne i32 %30, 0
  br i1 %31, label %32, label %33

32:                                               ; preds = %26
  br label %53

33:                                               ; preds = %26
  %34 = load ptr, ptr %4, align 8
  %35 = getelementptr inbounds %struct.uv_stream_s, ptr %34, i32 0, i32 7
  %36 = load i32, ptr %35, align 8
  %37 = or i32 %36, 4
  store i32 %37, ptr %35, align 8
  %38 = load ptr, ptr %4, align 8
  %39 = getelementptr inbounds %struct.uv_stream_s, ptr %38, i32 0, i32 7
  %40 = load i32, ptr %39, align 8
  %41 = and i32 %40, 8
  %42 = icmp ne i32 %41, 0
  br i1 %42, label %43, label %52

43:                                               ; preds = %33
  br label %44

44:                                               ; preds = %43
  %45 = load ptr, ptr %4, align 8
  %46 = getelementptr inbounds %struct.uv_stream_s, ptr %45, i32 0, i32 1
  %47 = load ptr, ptr %46, align 8
  %48 = getelementptr inbounds %struct.uv_loop_s, ptr %47, i32 0, i32 1
  %49 = load i32, ptr %48, align 8
  %50 = add i32 %49, 1
  store i32 %50, ptr %48, align 8
  br label %51

51:                                               ; preds = %44
  br label %52

52:                                               ; preds = %51, %33
  br label %53

53:                                               ; preds = %52, %32
  %54 = load ptr, ptr %4, align 8
  call void @uv__stream_osx_interrupt_select(ptr noundef %54)
  ret i32 0
}