; Function Attrs: nounwind uwtable
define dso_local noundef i32 @uv__read_start(ptr noundef initializes((104, 120)) %0, ptr noundef %1, ptr noundef %2) local_unnamed_addr #0 {
  %4 = getelementptr inbounds nuw i8, ptr %0, i64 88
  %5 = load i32, ptr %4, align 8
  %6 = and i32 %5, -6145
  %7 = or disjoint i32 %6, 4096
  store i32 %7, ptr %4, align 8
  %8 = getelementptr inbounds nuw i8, ptr %0, i64 112
  store ptr %2, ptr %8, align 8
  %9 = getelementptr inbounds nuw i8, ptr %0, i64 104
  store ptr %1, ptr %9, align 8
  %10 = getelementptr inbounds nuw i8, ptr %0, i64 8
  %11 = load ptr, ptr %10, align 8
  %12 = getelementptr inbounds nuw i8, ptr %0, i64 136
  tail call void @uv__io_start(ptr noundef %11, ptr noundef nonnull %12, i32 noundef 1) #12
  %13 = load i32, ptr %4, align 8
  %14 = and i32 %13, 4
  %.not = icmp eq i32 %14, 0
  br i1 %.not, label %15, label %23

15:                                               ; preds = %3
  %16 = or disjoint i32 %13, 4
  store i32 %16, ptr %4, align 8
  %17 = and i32 %13, 8
  %.not13 = icmp eq i32 %17, 0
  br i1 %.not13, label %23, label %18

18:                                               ; preds = %15
  %19 = load ptr, ptr %10, align 8
  %20 = getelementptr inbounds nuw i8, ptr %19, i64 8
  %21 = load i32, ptr %20, align 8
  %22 = add i32 %21, 1
  store i32 %22, ptr %20, align 8
  br label %23

23:                                               ; preds = %15, %18, %3
  ret i32 0
}